Certificate:
    Data:
        Version: 3 (0x2)
        Serial Number:
            5e:98:0f:50:6c:52:71:ec:e2:7d:94:8d:3b:e8:8e:f1
        Signature Algorithm: sha256WithRSAEncryption
        Issuer: CN=ChangeMe
        Validity
            Not Before: Aug  6 19:24:19 2022 GMT
            Not After : Nov  8 19:24:19 2024 GMT
        Subject: CN=ChangeMe
        Subject Public Key Info:
            Public Key Algorithm: rsaEncryption
                Public-Key: (2048 bit)
                Modulus:
                    00:ad:fb:f1:22:32:fe:b0:57:f0:99:36:8d:98:80:
                    78:67:79:18:e6:34:6b:92:c9:54:b5:8f:bc:6a:ea:
                    d9:e5:40:7e:a5:04:ed:df:1a:2c:7c:54:ea:2e:d5:
                    54:b6:7b:e4:19:19:07:66:16:50:db:2a:52:69:eb:
                    27:7c:af:5d:54:99:37:0f:74:8f:2c:25:82:8a:eb:
                    13:cf:84:82:69:41:e0:6e:3c:cf:87:69:38:ac:32:
                    0b:eb:ca:5b:b3:78:b4:d5:65:03:71:72:71:1c:29:
                    a6:85:df:93:60:a7:21:52:46:84:ee:0f:18:a9:68:
                    e3:8b:87:f6:db:e3:be:74:c2:c3:c3:db:c7:fe:30:
                    4c:5b:92:95:84:69:cc:8f:8b:0f:42:45:bc:71:29:
                    bc:c2:7e:83:7e:e2:93:2b:c5:5c:71:18:a6:0a:f7:
                    6f:70:7e:1d:34:03:9e:a5:6f:5f:8a:c9:10:7c:b9:
                    82:71:8d:56:dd:3e:5a:7c:95:11:e1:d2:ee:0a:fc:
                    cb:41:c7:fd:71:3b:3d:5c:c9:99:e2:46:58:b8:f5:
                    3c:b6:e1:c5:b4:f5:3c:53:e1:f4:0e:18:fb:83:89:
                    86:da:11:12:ab:4c:c2:19:03:0b:27:d6:e2:c4:8b:
                    4e:c8:d4:7e:57:57:86:b2:56:7f:d6:b2:2e:3c:7d:
                    91:cf
                Exponent: 65537 (0x10001)
        X509v3 extensions:
            X509v3 Basic Constraints: 
                CA:FALSE
            X509v3 Subject Key Identifier: 
                54:13:B3:A3:3F:9C:7E:FA:72:6E:EB:7D:D4:44:3F:A6:C0:D2:B0:F4
            X509v3 Authority Key Identifier: 
                keyid:4F:90:9B:45:04:83:8B:AF:8B:7E:E2:D2:DE:13:20:89:5B:98:D5:B9
                DirName:/CN=ChangeMe
                serial:74:58:07:A5:92:F0:2D:AE:7E:FD:73:69:49:FC:E1:D8:4F:19:84:26
            X509v3 Extended Key Usage: 
                TLS Web Server Authentication
            X509v3 Key Usage: 
                Digital Signature, Key Encipherment
            X509v3 Subject Alternative Name: 
                DNS:ChangeMe
    Signature Algorithm: sha256WithRSAEncryption
    Signature Value:
        06:e8:00:71:06:ab:79:2b:a0:04:ca:bf:11:7b:eb:60:a6:45:
        6c:89:11:11:33:d3:4c:c3:87:e0:d3:e9:d5:44:16:a1:a9:cb:
        6a:f6:b1:44:97:a5:a6:d7:56:07:5d:04:5b:97:fa:6f:87:77:
        14:58:1c:d0:87:ed:e5:ce:4c:a7:26:06:c5:a1:82:47:c0:a7:
        06:54:e2:84:1c:6f:86:23:66:df:6e:70:40:9f:15:de:db:a5:
        13:9d:a8:1c:bf:6a:62:0c:aa:6f:e8:90:21:e1:68:ac:fa:31:
        17:27:83:a6:72:5f:63:0d:25:84:88:2e:2e:37:84:eb:a2:93:
        d9:9a:8a:c4:5d:31:76:a2:1d:1a:2c:af:69:4d:5a:81:03:ea:
        68:43:7e:1d:4b:dc:65:8a:53:57:49:be:a8:8f:e1:76:e7:92:
        ca:d0:d3:ec:54:58:34:8f:21:aa:11:ef:11:54:69:47:7a:5e:
        e2:2a:fb:ef:bd:c1:7d:27:2d:fb:b7:f3:2f:16:d4:40:ec:7b:
        88:ee:90:3c:e7:be:a7:9b:77:2f:5f:ae:6e:35:cc:5a:cc:cf:
        bb:d7:9f:96:f3:8b:53:39:aa:b1:a5:e4:bf:7b:5d:ff:c0:89:
        5b:ea:99:85:51:63:d7:18:39:5c:26:7e:87:88:3a:8e:3c:ad:
        14:42:fa:4b
-----BEGIN CERTIFICATE-----
MIIDZTCCAk2gAwIBAgIQXpgPUGxScezifZSNO+iO8TANBgkqhkiG9w0BAQsFADAT
MREwDwYDVQQDDAhDaGFuZ2VNZTAeFw0yMjA4MDYxOTI0MTlaFw0yNDExMDgxOTI0
MTlaMBMxETAPBgNVBAMMCENoYW5nZU1lMIIBIjANBgkqhkiG9w0BAQEFAAOCAQ8A
MIIBCgKCAQEArfvxIjL+sFfwmTaNmIB4Z3kY5jRrkslUtY+8aurZ5UB+pQTt3xos
fFTqLtVUtnvkGRkHZhZQ2ypSaesnfK9dVJk3D3SPLCWCiusTz4SCaUHgbjzPh2k4
rDIL68pbs3i01WUDcXJxHCmmhd+TYKchUkaE7g8YqWjji4f22+O+dMLDw9vH/jBM
W5KVhGnMj4sPQkW8cSm8wn6DfuKTK8VccRimCvdvcH4dNAOepW9fiskQfLmCcY1W
3T5afJUR4dLuCvzLQcf9cTs9XMmZ4kZYuPU8tuHFtPU8U+H0Dhj7g4mG2hESq0zC
GQMLJ9bixItOyNR+V1eGslZ/1rIuPH2RzwIDAQABo4G0MIGxMAkGA1UdEwQCMAAw
HQYDVR0OBBYEFFQTs6M/nH76cm7rfdREP6bA0rD0ME4GA1UdIwRHMEWAFE+Qm0UE
g4uvi37i0t4TIIlbmNW5oRekFTATMREwDwYDVQQDDAhDaGFuZ2VNZYIUdFgHpZLw
La5+/XNpSfzh2E8ZhCYwEwYDVR0lBAwwCgYIKwYBBQUHAwEwCwYDVR0PBAQDAgWg
MBMGA1UdEQQMMAqCCENoYW5nZU1lMA0GCSqGSIb3DQEBCwUAA4IBAQAG6ABxBqt5
K6AEyr8Re+tgpkVsiRERM9NMw4fg0+nVRBahqctq9rFEl6Wm11YHXQRbl/pvh3cU
WBzQh+3lzkynJgbFoYJHwKcGVOKEHG+GI2bfbnBAnxXe26UTnagcv2piDKpv6JAh
4Wis+jEXJ4Omcl9jDSWEiC4uN4TropPZmorEXTF2oh0aLK9pTVqBA+poQ34dS9xl
ilNXSb6oj+F255LK0NPsVFg0jyGqEe8RVGlHel7iKvvvvcF9Jy37t/MvFtRA7HuI
7pA8576nm3cvX65uNcxazM+715+W84tTOaqxpeS/e13/wIlb6pmFUWPXGDlcJn6H
iDqOPK0UQvpL
-----END CERTIFICATE-----
